(dp0
S'tagprogress'
p1
(dp2
sS'taghistory'
p3
c__builtin__
set
p4
((lp5
(S'/mnt/dietpi_userdata/downloads/Portugal. The Man - So Young.mp3'
p6
tp7
a(S'/mnt/dietpi_userdata/downloads/Delain - April Rain.mp3'
p8
tp9
a(S'/mnt/dietpi_userdata/downloads/Biffy Clyro - Saturday Superhouse.mp3'
p10
tp11
a(S'/mnt/dietpi_userdata/downloads/a4020b0a952eec4032177dc810f204946d3fe961b9771cc589b97d05bdf8d0b3adb0cee9c0b7214b903ea1dc0c8aff868fe6805b9b08447169bce77edfaebc7deb80e85d4541e935b7a9b8e6fc02c3ad.mp3'
p12
tp13
a(S'/mnt/dietpi_userdata/downloads/Beirut - When I Die.mp3'
p14
tp15
a(S'/mnt/dietpi_userdata/downloads/Classical Chillout Orchestra - Intermezzo - Cavalleria Rusticana.mp3'
p16
tp17
a(S'/mnt/dietpi_userdata/downloads/x{410}x{444}x{444}x{438}x{43D}x{430}x{436} - x{421}x{43E}x{434}x{43E}x{43C} x{438} x{413}x{43E}x{43C}x{43E}x{440}x{440}x{430}.mp3'
p18
tp19
a(S'/mnt/dietpi_userdata/downloads/Revolver - Birds In Dm.mp3'
p20
tp21
a(S'/mnt/dietpi_userdata/downloads/The Tenors - BxE9same Mucho.mp3'
p22
tp23
a(S'/mnt/dietpi_userdata/downloads/Joan Jett and the Blackhearts - Crimson and Clover.mp3'
p24
tp25
a(S'/mnt/dietpi_userdata/downloads/4ac8dd8e633f6d6a9c1827121f35d1e0e0ddc1290e100109556a67c45f497a3c24ad38cad3ec68cb26926c6081b9b33cf1161643854c2a23825271fbd668a27c80ac2e69ea28004e8bed1090c91efbb4.mp3'
p26
tp27
a(S'/mnt/dietpi_userdata/downloads/Gerry Cinnamon - What Have You Done.mp3'
p28
tp29
a(S'/mnt/dietpi_userdata/downloads/Two Steps from Hell - Victory.mp3'
p30
tp31
a(S'/mnt/dietpi_userdata/downloads/Billy Fury - A Wonderous Place.mp3'
p32
tp33
a(S'/mnt/dietpi_userdata/downloads/Danny Bensi - Bygones Be Bygones.mp3'
p34
tp35
a(S'/mnt/dietpi_userdata/downloads/Chants des armxE9es franxE7aises - Hymne xE0 Saint Michel.mp3'
p36
tp37
a(S'/mnt/dietpi_userdata/downloads/Empire Of The Sun - Alive.mp3'
p38
tp39
a(S'/mnt/dietpi_userdata/downloads/Joan Jett - Bad Reputation.mp3'
p40
tp41
a(S'/mnt/dietpi_userdata/downloads/Stereophonics - Dakota.mp3'
p42
tp43
a(S'/mnt/dietpi_userdata/downloads/My Chemical Romance - Welcome to the Black Parade.mp3'
p44
tp45
a(S'/mnt/dietpi_userdata/downloads/87d5695121989bc6633880b18a3b772b409792b847384f69f9baef043a13fc0914e8c8b53c3c4e974a3ce59598e6c0a1451a5ba5100cde20d4016c37d364b43bc05df0220556fb627c84d846bcafc0bd.mp3'
p46
tp47
a(S'/mnt/dietpi_userdata/downloads/Louis Armstrong - What A Wonderful World.mp3'
p48
tp49
a(S'/mnt/dietpi_userdata/downloads/Simon & Garfunkel - The Sound of Silence.mp3'
p50
tp51
a(S'/mnt/dietpi_userdata/downloads/Joan Jett and the Blackhearts - Love Is Pain.mp3'
p52
tp53
a(S'/mnt/dietpi_userdata/downloads/e3ea88f168d2ba59c8bb5d446940f0b1aece58a5b5f7bb2ab432a77055d3622eae1e387f71c3ee622de40850920cb7c0355d25e526388c3c1b2123664b4e34a6bcb1422de934c92d93283eb8302b2f90.mp3'
p54
tp55
a(S'/mnt/dietpi_userdata/downloads/2CELLOS - Vivaldi Storm.mp3'
p56
tp57
a(S'/mnt/dietpi_userdata/downloads/ebcb096faba12c890df3f158cc15a4692ef7ab313d949d6f1a2de47e580f36d7458002c190ba42f1ee3665cfc478e84481a4b52b82f45588e3110a974c39114e2cb6b96af54cbc9cd77144dcf9d3b025.tmp'
p58
tp59
a(S'/mnt/dietpi_userdata/downloads/Berliner Philharmoniker - Peer Gynt Suite No.1, Op.46 : 2. The Death Of Aase.mp3'
p60
tp61
a(S'/mnt/dietpi_userdata/downloads/Jean-Michel Blais - il.mp3'
p62
tp63
a(S"/mnt/dietpi_userdata/downloads/Ben L'oncle Soul - All The Way.mp3"
p64
tp65
a(S'/mnt/dietpi_userdata/downloads/89af92cd22f2ae21c14b7081e4863b273951e58a08eebf06e65280a359bbd6efc34cb966f887ddd5dc64cefd7f1d78bbe38545fbea7a374522eb38db525a47403e79917fa2d5ac57a08a9b39ba53d070.tmp'
p66
tp67
a(S'/mnt/dietpi_userdata/downloads/7927213129de4888b66ddd377e648a2eaa15221d2b2f70dfdb5fb1b629b9fe150a5be44d69184f8cb847799941275bc93ed9bd66e4ed6c9c3aaf70c6ed9b3c1a5442bad9ab136418d0271806dbd22611.mp3'
p68
tp69
a(S'/mnt/dietpi_userdata/downloads/Mike Perry - Runaway.mp3'
p70
tp71
a(S'/mnt/dietpi_userdata/downloads/Glen Campbell - Rhinestone Cowboy (Remastered).mp3'
p72
tp73
a(S'/mnt/dietpi_userdata/downloads/Les Stentors - La Marseillaise.mp3'
p74
tp75
a(S'/mnt/dietpi_userdata/downloads/Simple Plan - Take My Hand.mp3'
p76
tp77
a(S'/mnt/dietpi_userdata/downloads/Kelly Clarkson - Love So Soft.mp3'
p78
tp79
a(S'/mnt/dietpi_userdata/downloads/Greg Pearle - Shine.mp3'
p80
tp81
a(S'/mnt/dietpi_userdata/downloads/Liam Gallagher - Greedy Soul.mp3'
p82
tp83
a(S'/mnt/dietpi_userdata/downloads/Les Stentors - Apatride.mp3'
p84
tp85
a(S"/mnt/dietpi_userdata/downloads/Joe Cocker - My Father's Son.mp3"
p86
tp87
a(S'/mnt/dietpi_userdata/downloads/Silverstein - Ghost.mp3'
p88
tp89
a(S'/mnt/dietpi_userdata/downloads/[dunkelbunt] - Viens avec moi.mp3'
p90
tp91
a(S'/mnt/dietpi_userdata/downloads/x{42F}x{43D}x{43A}x{430} - x{41F}x{440}x{43E}x{434}x{430}x{43D}x{43E}!.mp3'
p92
tp93
a(S'/mnt/dietpi_userdata/downloads/Collective Soul - The World I Know.mp3'
p94
tp95
a(S'/mnt/dietpi_userdata/downloads/9baf8386e351337094eef563e93b0ddd8c6287ea93a910e80d261ad155c1ddc317608764d7ad346f6579dbe1eb156fbca716ba6c757591f6036577963cada846131baa6cdd7cb6d986613d212dfcda09.mp3'
p96
tp97
a(S'/mnt/dietpi_userdata/downloads/Broken Bells - Holding on for Life.mp3'
p98
tp99
a(S'/mnt/dietpi_userdata/downloads/Weakened Friends - Early (Audiotree Live Version).mp3'
p100
tp101
a(S'/mnt/dietpi_userdata/downloads/Ginkgoa - Who Cares.mp3'
p102
tp103
a(S'/mnt/dietpi_userdata/downloads/Avenged Sevenfold - Nightmare.mp3'
p104
tp105
a(S'/mnt/dietpi_userdata/downloads/The Maine - English Girls.mp3'
p106
tp107
a(S'/mnt/dietpi_userdata/downloads/Circa Waves - Me, Myself and Hollywood.mp3'
p108
tp109
a(S'/mnt/dietpi_userdata/downloads/Royal Scots Dragoon Guards Band, Pipes & Drums - Amazing Grace.mp3'
p110
tp111
a(S'/mnt/dietpi_userdata/downloads/Two Steps from Hell - Star Sky.mp3'
p112
tp113
a(S'/mnt/dietpi_userdata/downloads/Matteo Myderwyk - To Move.mp3'
p114
tp115
a(S'/mnt/dietpi_userdata/downloads/Dean Martin - A Winter Romance.mp3'
p116
tp117
a(S'/mnt/dietpi_userdata/downloads/Shida Shahabi - Afterword.mp3'
p118
tp119
a(S"/mnt/dietpi_userdata/downloads/The Human League - Don't You Want Me.mp3"
p120
tp121
a(S'/mnt/dietpi_userdata/downloads/Lifehouse - Hanging By A Moment.mp3'
p122
tp123
a(S'/mnt/dietpi_userdata/downloads/Skip the Use - Birds Are Born To Fly.mp3'
p124
tp125
a(S'/mnt/dietpi_userdata/downloads/Adele - Someone Like You.mp3'
p126
tp127
a(S"/mnt/dietpi_userdata/downloads/Music Lab Collective and Valentina Lisitsa - La Valse D'AmxE9lie (From Amelie From Montmartre).mp3"
p128
tp129
a(S'/mnt/dietpi_userdata/downloads/Aim - Underground Crown Holders.mp3'
p130
tp131
a(S'/mnt/dietpi_userdata/downloads/The Stone Roses - She Bangs the Drums (Remastered).mp3'
p132
tp133
a(S'/mnt/dietpi_userdata/downloads/Tame Impala - Patience.mp3'
p134
tp135
a(S"/mnt/dietpi_userdata/downloads/Aldebert - J'ai 10 ans.mp3"
p136
tp137
a(S'/mnt/dietpi_userdata/downloads/Beirut - No No No.mp3'
p138
tp139
a(S'/mnt/dietpi_userdata/downloads/Simply Three - Rain.mp3'
p140
tp141
a(S'/mnt/dietpi_userdata/downloads/Cocoon - American Boy.mp3'
p142
tp143
a(S'/mnt/dietpi_userdata/downloads/Red Hot Chili Peppers - Dani California.mp3'
p144
tp145
a(S'/mnt/dietpi_userdata/downloads/Joep Beving - Ab Ovo.mp3'
p146
tp147
a(S'/mnt/dietpi_userdata/downloads/League of Legends - RISE.mp3'
p148
tp149
a(S'/mnt/dietpi_userdata/downloads/A Rocket To The Moon - On A Lonely Night.mp3'
p150
tp151
a(S'/mnt/dietpi_userdata/downloads/Cat Stevens - Tea For The Tillerman (Live At The BBC, 1971).mp3'
p152
tp153
a(S'/mnt/dietpi_userdata/downloads/Aysedeniz Gokcin - Stairs of Dreams.mp3'
p154
tp155
a(S'/mnt/dietpi_userdata/downloads/Monte La Rue - Turn of the Light.mp3'
p156
tp157
a(S'/mnt/dietpi_userdata/downloads/Arcade Fire - The Suburbs.mp3'
p158
tp159
a(S'/mnt/dietpi_userdata/downloads/Yodelice - Safe & Scarred.mp3'
p160
tp161
a(S'/mnt/dietpi_userdata/downloads/The Neighbourhood - Sweater Weather.mp3'
p162
tp163
a(S'/mnt/dietpi_userdata/downloads/Boogie Belgique - Ms. Yutani.mp3'
p164
tp165
a(S'/mnt/dietpi_userdata/downloads/Faun - Tanz mit mir.mp3'
p166
tp167
a(S'/mnt/dietpi_userdata/downloads/Nolwenn Leroy - Jolie Louise.mp3'
p168
tp169
a(S'/mnt/dietpi_userdata/downloads/The Maine - Taxi.mp3'
p170
tp171
a(S'/mnt/dietpi_userdata/downloads/Angus & Julia Stone - Paper Aeroplane.mp3'
p172
tp173
a(S'/mnt/dietpi_userdata/downloads/a145f6af19459a9e4757babad4b563b0e79d94a765536c540880c65bfcf079413dd664fd50ed0347115b1ea88c7e0210cdebe9cc961f70ae9b4a044f802973452367b6907d08f2f2d2f934c64c0aea49.mp3'
p174
tp175
a(S"/mnt/dietpi_userdata/downloads/The Wombats - Let's Dance To Joy Division.mp3"
p176
tp177
a(S"/mnt/dietpi_userdata/downloads/Nina Nesbitt - Is It Really Me You're Missing.mp3"
p178
tp179
a(S'/mnt/dietpi_userdata/downloads/Blur - Coffee and TV (Radio Edit).mp3'
p180
tp181
a(S'/mnt/dietpi_userdata/downloads/Hollywood Undead - Riot.mp3'
p182
tp183
a(S'/mnt/dietpi_userdata/downloads/Charlie Fink - Somewhere on the Avenue (Life is Good).mp3'
p184
tp185
a(S'/mnt/dietpi_userdata/downloads/William Joseph - Nothing Else Matters.mp3'
p186
tp187
a(S'/mnt/dietpi_userdata/downloads/2ac708d1e79f9b849dca1d09d73e46bd7eeba63fb9f5f9f864e37a0c250891ca7a6db9eef31b79843752591fee40d859954db28fea69e14ae8fb66683cf17de343f2f1a1d54534b67b5c81e76e154298.mp3'
p188
tp189
a(S'/mnt/dietpi_userdata/downloads/Nils Frahm - Talisman.mp3'
p190
tp191
a(S'/mnt/dietpi_userdata/downloads/Epic North - Exosuit.mp3'
p192
tp193
a(S'/mnt/dietpi_userdata/downloads/Sigrid - Everybody Knows.mp3'
p194
tp195
a(S'/mnt/dietpi_userdata/downloads/All Time Low - Dear Maria, Count Me In.mp3'
p196
tp197
a(S'/mnt/dietpi_userdata/downloads/Saez - GuantxE1namo.mp3'
p198
tp199
a(S'/mnt/dietpi_userdata/downloads/Lindsey Stirling - Shatter Me.mp3'
p200
tp201
a(S'/mnt/dietpi_userdata/downloads/Dean Martin - Let It Snow! Let It Snow! Let It Snow!.mp3'
p202
tp203
a(S'/mnt/dietpi_userdata/downloads/Deluxe - Pony.mp3'
p204
tp205
a(S'/mnt/dietpi_userdata/downloads/xD3lafur Arnalds - re:member.mp3'
p206
tp207
a(S'/mnt/dietpi_userdata/downloads/Stone Sour - Through Glass (Live Acoustic).mp3'
p208
tp209
a(S'/mnt/dietpi_userdata/downloads/Jackie Evancho - Apocalypse.mp3'
p210
tp211
a(S'/mnt/dietpi_userdata/downloads/Ben Howard - Towing The Line.mp3'
p212
tp213
a(S"/mnt/dietpi_userdata/downloads/Sleeping With Sirens - If You Can't Hang.mp3"
p214
tp215
a(S"/mnt/dietpi_userdata/downloads/x{425}x{430}x{43D}x{441} x{426}x{438}x{43C}x{43C}x{435}x{440} - I'm Not a Hero.mp3"
p216
tp217
a(S'/mnt/dietpi_userdata/downloads/Amon Tobin - Nova.mp3'
p218
tp219
a(S'/mnt/dietpi_userdata/downloads/Antti Martikainen - The Forbidden City (Remaster).mp3'
p220
tp221
a(S'/mnt/dietpi_userdata/downloads/Adele - Rolling In The Deep.mp3'
p222
tp223
a(S"/mnt/dietpi_userdata/downloads/Pet Shop Boys - It's a Sin.mp3"
p224
tp225
a(S'/mnt/dietpi_userdata/downloads/The Prodigy - Firestarter.mp3'
p226
tp227
a(S'/mnt/dietpi_userdata/downloads/Yodelice - Sunday With A Flu.mp3'
p228
tp229
a(S'/mnt/dietpi_userdata/downloads/Foals - White Onions.mp3'
p230
tp231
a(S'/mnt/dietpi_userdata/downloads/Underworld - Ix{2019}ll See Big.mp3'
p232
tp233
a(S'/mnt/dietpi_userdata/downloads/Vampire Weekend - Diane Young.mp3'
p234
tp235
a(S'/mnt/dietpi_userdata/downloads/Macklemore & Ryan Lewis - Same Love (feat. Mary Lambert).mp3'
p236
tp237
a(S'/mnt/dietpi_userdata/downloads/ab9e946fae90d6da6e37ec89d8de9f379da92cce3f3de154ee52332adbced06e318e94b32c209ac07941f41a46a4c74cebe1b477c6368b6a71fc1617db5977dbbe4515bfa739e30005e7b054bba168f5.tmp'
p238
tp239
a(S'/mnt/dietpi_userdata/downloads/Grouplove - Colours.mp3'
p240
tp241
a(S'/mnt/dietpi_userdata/downloads/176e870a0da5d65a01954737aeca998b580a52d7c0ddcf8cf62eb350a3058f262e8c2fbf837e6d432980cf1bc9befc9f3e0a33531db2e06187b098cb0b2ad2e8f9b8671fa61f8ee2d467557b8157aa36.mp3'
p242
tp243
a(S'/mnt/dietpi_userdata/downloads/M83 - Oblivion (feat. Susanne SundfxF8r).mp3'
p244
tp245
a(S'/mnt/dietpi_userdata/downloads/Celtic Thunder - A Place In the Choir.mp3'
p246
tp247
a(S'/mnt/dietpi_userdata/downloads/Francesco Guccini - Vorrei.mp3'
p248
tp249
a(S'/mnt/dietpi_userdata/downloads/REO Speedwagon - In My Dreams.mp3'
p250
tp251
a(S'/mnt/dietpi_userdata/downloads/Amy Macdonald - Poison Prince.mp3'
p252
tp253
a(S'/mnt/dietpi_userdata/downloads/Selah Sue - Break.mp3'
p254
tp255
a(S'/mnt/dietpi_userdata/downloads/Aliotta haynes Jeremiah - Shot Of Gold.mp3'
p256
tp257
a(S'/mnt/dietpi_userdata/downloads/Olga Scheps - 4 AM.mp3'
p258
tp259
a(S'/mnt/dietpi_userdata/downloads/Abney Park - The Circus At the End of the World.mp3'
p260
tp261
a(S'/mnt/dietpi_userdata/downloads/332efb80c5205a5833b26858c300711ae40e8a7d6be1f0342206db4c82955865b82d00a40ef3266f115e2c86f642e37de6b2661ea7d6ac2a74f5588ed677938e31dc0611da5a2fe68ed4c29dc838b029.mp3'
p262
tp263
a(S'/mnt/dietpi_userdata/downloads/Coldplay - The Scientist.mp3'
p264
tp265
a(S'/mnt/dietpi_userdata/downloads/31b5838c93535d01f1c99fcdf999309bdac2d9c8cacf5f6fbf6a0c0cf62a41efd02adcd5cfbaa67adf5f7c1177209280451065c618d18196c05f303a444320d085798c5bf2bea486932a88c94ea68cda.mp3'
p266
tp267
a(S'/mnt/dietpi_userdata/downloads/Akira Kosemura - Sphere.mp3'
p268
tp269
a(S'/mnt/dietpi_userdata/downloads/Herbert von Karajan - Symphony No.3 In F, Op.90 : 3. Poco allegretto.mp3'
p270
tp271
a(S"/mnt/dietpi_userdata/downloads/Tom Grennan - Found What I've Been Looking For (Friction 'Back to 92' Mix).mp3"
p272
tp273
a(S'/mnt/dietpi_userdata/downloads/The 1975 - I Always Wanna Die (Sometimes).mp3'
p274
tp275
a(S'/mnt/dietpi_userdata/downloads/Rihanna - FourFiveSeconds.mp3'
p276
tp277
a(S'/mnt/dietpi_userdata/downloads/Bleeker - Highway.mp3'
p278
tp279
a(S'/mnt/dietpi_userdata/downloads/American Hi-Fi - Vertigo (Demo).mp3'
p280
tp281
a(S'/mnt/dietpi_userdata/downloads/Indila - DernixE8re danse.mp3'
p282
tp283
a(S'/mnt/dietpi_userdata/downloads/Max Frost - White Lies.mp3'
p284
tp285
a(S"/mnt/dietpi_userdata/downloads/The Mamas & The Papas - California Dreamin' (Single Version).mp3"
p286
tp287
a(S'/mnt/dietpi_userdata/downloads/MK - Back & Forth.mp3'
p288
tp289
a(S'/mnt/dietpi_userdata/downloads/The Prodigy - Omen.mp3'
p290
tp291
a(S'/mnt/dietpi_userdata/downloads/Brigitte - Palladium.mp3'
p292
tp293
a(S'/mnt/dietpi_userdata/downloads/blink-182 - All The Small Things.mp3'
p294
tp295
a(S'/mnt/dietpi_userdata/downloads/Zazie - Je suis un homme.mp3'
p296
tp297
a(S'/mnt/dietpi_userdata/downloads/Johannes Motschmann - Flow Expansion.mp3'
p298
tp299
a(S'/mnt/dietpi_userdata/downloads/Gene Autry - Here Comes Santa Claus (Right Down Santa Claus Lane).mp3'
p300
tp301
a(S'/mnt/dietpi_userdata/downloads/Jack Johnson - Banana Pancakes.mp3'
p302
tp303
a(S'/mnt/dietpi_userdata/downloads/Yodelice - Free.mp3'
p304
tp305
a(S'/mnt/dietpi_userdata/downloads/Paul Weller - You Do Something To Me.mp3'
p306
tp307
a(S'/mnt/dietpi_userdata/downloads/Twenty One Pilots - Stressed Out.mp3'
p308
tp309
a(S'/mnt/dietpi_userdata/downloads/Kelly Clarkson - Never Enough.mp3'
p310
tp311
a(S'/mnt/dietpi_userdata/downloads/INXS - Suicide Blonde.mp3'
p312
tp313
a(S'/mnt/dietpi_userdata/downloads/We The Kings - Check Yes, Juliet.mp3'
p314
tp315
a(S'/mnt/dietpi_userdata/downloads/James Blunt - 1973.mp3'
p316
tp317
a(S'/mnt/dietpi_userdata/downloads/Tape Five - A Cool Cat In Town.mp3'
p318
tp319
a(S'/mnt/dietpi_userdata/downloads/James Bay - Hold Back The River.mp3'
p320
tp321
a(S'/mnt/dietpi_userdata/downloads/Rosemary Standley - India Song.mp3'
p322
tp323
a(S'/mnt/dietpi_userdata/downloads/Kasabian - Wasted.mp3'
p324
tp325
a(S'/mnt/dietpi_userdata/downloads/Aysedeniz Gokcin - Come as You Are.mp3'
p326
tp327
a(S'/mnt/dietpi_userdata/downloads/x{41C}x{443}x{440}x{430}x{43A}x{430}x{43C}x{438} - x{41F}x{43E}x{431}x{435}x{436}x{434}x{430}x{439}!.mp3'
p328
tp329
a(S'/mnt/dietpi_userdata/downloads/Patent Pending - Hey Mario.mp3'
p330
tp331
a(S'/mnt/dietpi_userdata/downloads/Two Door Cinema Club - What You Know.mp3'
p332
tp333
a(S'/mnt/dietpi_userdata/downloads/The Wombats - Cheetah Tongue.mp3'
p334
tp335
a(S'/mnt/dietpi_userdata/downloads/Cat Stevens - Moonshadow.mp3'
p336
tp337
a(S"/mnt/dietpi_userdata/downloads/The Chemical Brothers - We've Got To Try.mp3"
p338
tp339
a(S'/mnt/dietpi_userdata/downloads/Tom Jones - Delilah.mp3'
p340
tp341
a(S'/mnt/dietpi_userdata/downloads/The Enemy - Away from Here.mp3'
p342
tp343
a(S'/mnt/dietpi_userdata/downloads/Tia Brazda - Cabin Fever.mp3'
p344
tp345
a(S'/mnt/dietpi_userdata/downloads/Ina Wroldsen - Mother.mp3'
p346
tp347
a(S'/mnt/dietpi_userdata/downloads/John Lennon - Jealous Guy (Ultimate Mix).mp3'
p348
tp349
a(S'/mnt/dietpi_userdata/downloads/My Chemical Romance - Teenagers.mp3'
p350
tp351
a(S'/mnt/dietpi_userdata/downloads/Caro Emerald - Whatchugot.mp3'
p352
tp353
a(S'/mnt/dietpi_userdata/downloads/Squarepusher - Laser Rock.mp3'
p354
tp355
a(S'/mnt/dietpi_userdata/downloads/DelaDap - Georgian Lesson.mp3'
p356
tp357
a(S'/mnt/dietpi_userdata/downloads/Guitar Dreamers - Style.mp3'
p358
tp359
a(S'/mnt/dietpi_userdata/downloads/Interpol - If You Really Love Nothing.mp3'
p360
tp361
a(S'/mnt/dietpi_userdata/downloads/Mike Perry - The Ocean.mp3'
p362
tp363
a(S'/mnt/dietpi_userdata/downloads/Smokey Bastard - Drunken Sailor.mp3'
p364
tp365
a(S'/mnt/dietpi_userdata/downloads/C2C - Down The Road.mp3'
p366
tp367
a(S'/mnt/dietpi_userdata/downloads/Alice Francis - Too Damn Hot.mp3'
p368
tp369
a(S'/mnt/dietpi_userdata/downloads/Luis Fonsi - xC9chame La Culpa.mp3'
p370
tp371
a(S'/mnt/dietpi_userdata/downloads/ec7077ed6c0db4e2f48315c54be1bd3edefd9730a6ecd95aea9831341ff6a2e96c4fc541bbfe144a65eea7a3bcdd70f78d27878c034e53012bb8d18c298f5560abc91d4d176fed7fd451399cefb42df0.mp3'
p372
tp373
a(S'/mnt/dietpi_userdata/downloads/George Fitzgerald - Burns (Moby Remix Edit).mp3'
p374
tp375
a(S'/mnt/dietpi_userdata/downloads/Hollywood Undead - Renegade.mp3'
p376
tp377
a(S'/mnt/dietpi_userdata/downloads/Caro Emerald - Back It Up.mp3'
p378
tp379
a(S"/mnt/dietpi_userdata/downloads/Vance Joy - I'm With You (Single Edit).mp3"
p380
tp381
a(S'/mnt/dietpi_userdata/downloads/Alan Walker - Tired.mp3'
p382
tp383
a(S"/mnt/dietpi_userdata/downloads/Les Marins D'Iroise - La fille de recouvrance.mp3"
p384
tp385
a(S'/mnt/dietpi_userdata/downloads/The Vaccines - Out On the Street.mp3'
p386
tp387
a(S'/mnt/dietpi_userdata/downloads/Katherine Jenkins - The Flower Duet (From LakmxE9).mp3'
p388
tp389
a(S'/mnt/dietpi_userdata/downloads/Kesha - TiK ToK.mp3'
p390
tp391
a(S'/mnt/dietpi_userdata/downloads/Blur - Parklife.mp3'
p392
tp393
a(S'/mnt/dietpi_userdata/downloads/Michael BublxE9 - I Only Have Eyes for You.mp3'
p394
tp395
a(S'/mnt/dietpi_userdata/downloads/Sequoia - Drift.mp3'
p396
tp397
a(S'/mnt/dietpi_userdata/downloads/Mystery Jets - Bubblegum.mp3'
p398
tp399
a(S'/mnt/dietpi_userdata/downloads/Boards of Canada - Dayvan Cowboy.mp3'
p400
tp401
a(S'/mnt/dietpi_userdata/downloads/The Kilkennys - Before the Deluge.mp3'
p402
tp403
a(S'/mnt/dietpi_userdata/downloads/Analogik - Gypsy Doodle.mp3'
p404
tp405
a(S'/mnt/dietpi_userdata/downloads/Two Door Cinema Club - Are We Ready? (Wreck).mp3'
p406
tp407
a(S'/mnt/dietpi_userdata/downloads/Sundara Karma - Indigo Puff.mp3'
p408
tp409
a(S'/mnt/dietpi_userdata/downloads/Niko Kotoulas - Fly (Piano Arrangement).mp3'
p410
tp411
a(S'/mnt/dietpi_userdata/downloads/Johnny Mathis - The Twelfth of Never (Single Version).mp3'
p412
tp413
a(S'/mnt/dietpi_userdata/downloads/Hollywood Undead - Bang Bang.mp3'
p414
tp415
a(S'/mnt/dietpi_userdata/downloads/Craig Armstrong - Glasgow Love Theme.mp3'
p416
tp417
a(S'/mnt/dietpi_userdata/downloads/Bloc Party - Helicopter.mp3'
p418
tp419
a(S'/mnt/dietpi_userdata/downloads/Analogik - The Beat (Live).mp3'
p420
tp421
a(S'/mnt/dietpi_userdata/downloads/Lindsey Stirling - Roundtable Rival.mp3'
p422
tp423
a(S'/mnt/dietpi_userdata/downloads/Good Charlotte - The Anthem.mp3'
p424
tp425
a(S'/mnt/dietpi_userdata/downloads/Music Lab Collective - Fix You.mp3'
p426
tp427
a(S'/mnt/dietpi_userdata/downloads/You Me At Six - Fast Forward.mp3'
p428
tp429
a(S'/mnt/dietpi_userdata/downloads/The Downtown Fiction - Fuck You (Cee Lo Green cover).mp3'
p430
tp431
a(S'/mnt/dietpi_userdata/downloads/Adrian von Ziegler - Wolf Blood.mp3'
p432
tp433
a(S'/mnt/dietpi_userdata/downloads/Aerosmith - Dream On.mp3'
p434
tp435
a(S"/mnt/dietpi_userdata/downloads/Ben L'oncle Soul - Soulman.mp3"
p436
tp437
a(S'/mnt/dietpi_userdata/downloads/Laurence Ipsum - Night.mp3'
p438
tp439
a(S'/mnt/dietpi_userdata/downloads/Bicep - Glue.mp3'
p440
tp441
a(S'/mnt/dietpi_userdata/downloads/Paul Weller - Mayfly.mp3'
p442
tp443
a(S'/mnt/dietpi_userdata/downloads/Etta James - A Sunday Kind Of Love.mp3'
p444
tp445
a(S'/mnt/dietpi_userdata/downloads/RIOPY - New York.mp3'
p446
tp447
a(S"/mnt/dietpi_userdata/downloads/Dean Martin - Sam's Song.mp3"
p448
tp449
a(S'/mnt/dietpi_userdata/downloads/Audiomachine - So Say We All.mp3'
p450
tp451
a(S'/mnt/dietpi_userdata/downloads/Lou Reed - This Magic Moment.mp3'
p452
tp453
a(S'/mnt/dietpi_userdata/downloads/Cats on Trees - Keep on Dancing.mp3'
p454
tp455
a(S'/mnt/dietpi_userdata/downloads/Orbital - Copenhagen.mp3'
p456
tp457
a(S'/mnt/dietpi_userdata/downloads/Incontrol - Swing or Die (Wolfgang Lohr Remix).mp3'
p458
tp459
a(S'/mnt/dietpi_userdata/downloads/Ayo - Sometimes (Home Acoustic Version).mp3'
p460
tp461
a(S"/mnt/dietpi_userdata/downloads/Set It Off - Wolf in Sheep's Clothing.mp3"
p462
tp463
a(S'/mnt/dietpi_userdata/downloads/Ray Charles - Hit the Road Jack.mp3'
p464
tp465
a(S'/mnt/dietpi_userdata/downloads/Selah Sue - Mommy.mp3'
p466
tp467
a(S'/mnt/dietpi_userdata/downloads/MGMT - Kids.mp3'
p468
tp469
a(S'/mnt/dietpi_userdata/downloads/Nirvana - Breed (Album Version).mp3'
p470
tp471
a(S'/mnt/dietpi_userdata/downloads/Two Steps from Hell - Never Back Down.mp3'
p472
tp473
a(S"/mnt/dietpi_userdata/downloads/Fifth Harmony - That's My Girl.mp3"
p474
tp475
a(S'/mnt/dietpi_userdata/downloads/Weval - Roll Together.mp3'
p476
tp477
a(S'/mnt/dietpi_userdata/downloads/Broken Bells - October.mp3'
p478
tp479
a(S'/mnt/dietpi_userdata/downloads/Dimie Cat - Glam (Electro Swing Remix).mp3'
p480
tp481
a(S'/mnt/dietpi_userdata/downloads/Steve Jablonsky - We Have to Go.mp3'
p482
tp483
a(S'/mnt/dietpi_userdata/downloads/Breaking Benjamin - Red Cold River.mp3'
p484
tp485
a(S'/mnt/dietpi_userdata/downloads/Good Charlotte - Cold Song.mp3'
p486
tp487
a(S"/mnt/dietpi_userdata/downloads/Otis Redding - (Sittin' On) The Dock of the Bay.mp3"
p488
tp489
a(S'/mnt/dietpi_userdata/downloads/Andrew W.K. - Party Hard (Album Version).mp3'
p490
tp491
a(S'/mnt/dietpi_userdata/downloads/David Cassidy - Come On Get Happy (The Partridge Family Theme).mp3'
p492
tp493
a(S'/mnt/dietpi_userdata/downloads/The Kooks - Naive.mp3'
p494
tp495
a(S'/mnt/dietpi_userdata/downloads/Celtic Woman - Skyrim Theme (Dragonborn).mp3'
p496
tp497
a(S'/mnt/dietpi_userdata/downloads/J.J. Cale - Call Me The Breeze.mp3'
p498
tp499
a(S'/mnt/dietpi_userdata/downloads/Creed - My Own Prison (Radio Edit).mp3'
p500
tp501
a(S'/mnt/dietpi_userdata/downloads/Stevie Wonder - Superstition (Single Version).mp3'
p502
tp503
a(S'/mnt/dietpi_userdata/downloads/Really Slow Motion - The Wild Card.mp3'
p504
tp505
a(S'/mnt/dietpi_userdata/downloads/Cat Stevens - Father And Son.mp3'
p506
tp507
a(S'/mnt/dietpi_userdata/downloads/Project Pitchfork - The Circus.mp3'
p508
tp509
a(S'/mnt/dietpi_userdata/downloads/Jennifer Thomas - Ascension.mp3'
p510
tp511
a(S'/mnt/dietpi_userdata/downloads/The Offspring - Pretty Fly (For A White Guy).mp3'
p512
tp513
a(S'/mnt/dietpi_userdata/downloads/Stereophonics - I Wanna Get Lost With You.mp3'
p514
tp515
a(S'/mnt/dietpi_userdata/downloads/Jazzotron - Be My Love.mp3'
p516
tp517
a(S'/mnt/dietpi_userdata/downloads/The Black Keys - Tighten Up.mp3'
p518
tp519
a(S'/mnt/dietpi_userdata/downloads/Mark Petrie - Artemis.mp3'
p520
tp521
a(S'/mnt/dietpi_userdata/downloads/Helios - Nothing It Can.mp3'
p522
tp523
a(S"/mnt/dietpi_userdata/downloads/3 Doors Down - When I'm Gone.mp3"
p524
tp525
a(S'/mnt/dietpi_userdata/downloads/Joan Osborne - The Weight (Live).mp3'
p526
tp527
a(S'/mnt/dietpi_userdata/downloads/Muse - Supermassive Black Hole.mp3'
p528
tp529
a(S"/mnt/dietpi_userdata/downloads/matchbox twenty - How Far We've Come.mp3"
p530
tp531
a(S'/mnt/dietpi_userdata/downloads/Robin Schulz - Speechless (feat. Erika Sirola).mp3'
p532
tp533
a(S'/mnt/dietpi_userdata/downloads/ba4191c846b779907b7b4a5b50fba46afc94482e8c6b2cd3055daf17f0edd57d218f15df4f49ff3c02f11502acb30a2da8c00a8e0e1b9a1db473124cc370a729cfd84b53f43f394bb1dce71e35a84da7.mp3'
p534
tp535
a(S'/mnt/dietpi_userdata/downloads/Bastille - Pompeii.mp3'
p536
tp537
a(S'/mnt/dietpi_userdata/downloads/The Verve - Sonnet.mp3'
p538
tp539
a(S'/mnt/dietpi_userdata/downloads/Joss Stone - Fell In Love With A Boy.mp3'
p540
tp541
a(S'/mnt/dietpi_userdata/downloads/Kimberose - Smile.mp3'
p542
tp543
a(S'/mnt/dietpi_userdata/downloads/Charlotte Cardin - Dirty Dirty.mp3'
p544
tp545
a(S'/mnt/dietpi_userdata/downloads/Starset - Point Of No Return.mp3'
p546
tp547
a(S'/mnt/dietpi_userdata/downloads/The Offspring - The Future Is Now.mp3'
p548
tp549
a(S'/mnt/dietpi_userdata/downloads/Irene Grandi - All You Need Is Love.mp3'
p550
tp551
a(S'/mnt/dietpi_userdata/downloads/Foster the People - Style.mp3'
p552
tp553
a(S'/mnt/dietpi_userdata/downloads/RxF6yksopp - Every Little Thing.mp3'
p554
tp555
a(S'/mnt/dietpi_userdata/downloads/Luke Kelly - Raglan Road.mp3'
p556
tp557
a(S'/mnt/dietpi_userdata/downloads/Robson & Jerome - Unchained Melody.mp3'
p558
tp559
a(S'/mnt/dietpi_userdata/downloads/The Subways - Rock & Roll Queen.mp3'
p560
tp561
a(S'/mnt/dietpi_userdata/downloads/Nils Frahm - Them.mp3'
p562
tp563
a(S'/mnt/dietpi_userdata/downloads/alt-J - Deadcrush.mp3'
p564
tp565
a(S'/mnt/dietpi_userdata/downloads/Beirut - I Giardini.mp3'
p566
tp567
a(S'/mnt/dietpi_userdata/downloads/Moriarty - When I Ride.mp3'
p568
tp569
a(S'/mnt/dietpi_userdata/downloads/Albert Hammond Jr. - Far Away Truths.mp3'
p570
tp571
a(S'/mnt/dietpi_userdata/downloads/b95da8c2aef7bf68b257a3c86027c6a68a959c4551b0dea09f1ac36ac59c8a04df838385c72d6368af414e45c83de2edca718a4f7c844ecec2b9d267ef86f333dcea67737b88f1743d13b4fe16f2c05d.mp3'
p572
tp573
a(S'/mnt/dietpi_userdata/downloads/James Taylor and Mark Knopfler - Sailing To Philadelphia.mp3'
p574
tp575
a(S'/mnt/dietpi_userdata/downloads/The Courteeners - You Overdid It Doll.mp3'
p576
tp577
a(S'/mnt/dietpi_userdata/downloads/c44f7ca0a000869bf6c4552e5a70d436a83cfda15e0b545cb3c9bb632fdb59f267cd11b4540fd845f73936bd45f2a616663819637f1199a9b33c1be5c0b13e7bfff3553a37c0e1233e9c0192fa97b128.mp3'
p578
tp579
a(S'/mnt/dietpi_userdata/downloads/Francesco Tristano - Triangle Song.mp3'
p580
tp581
a(S"/mnt/dietpi_userdata/downloads/Louis Armstrong - You're The Top.mp3"
p582
tp583
a(S'/mnt/dietpi_userdata/downloads/Paul Hankinson - Nimmer und Nimmermehr.mp3'
p584
tp585
a(S'/mnt/dietpi_userdata/downloads/Massive Attack - Teardrop.mp3'
p586
tp587
a(S'/mnt/dietpi_userdata/downloads/Thirty Seconds to Mars - The Kill.mp3'
p588
tp589
a(S'/mnt/dietpi_userdata/downloads/Happy Mondays - W.F.L..mp3'
p590
tp591
a(S'/mnt/dietpi_userdata/downloads/FLEUR - x{428}x{435}x{43B}x{43A}x{43E}x{43F}x{440}x{44F}x{434}.mp3'
p592
tp593
a(S'/mnt/dietpi_userdata/downloads/Bonobo - Nightlite.mp3'
p594
tp595
a(S'/mnt/dietpi_userdata/downloads/Runrig - Clash of the Ash.mp3'
p596
tp597
a(S'/mnt/dietpi_userdata/downloads/The Seige - Run for Your Life.mp3'
p598
tp599
a(S'/mnt/dietpi_userdata/downloads/Celtic Woman - The New Ground.mp3'
p600
tp601
a(S'/mnt/dietpi_userdata/downloads/Roberto Cacciapaglia - Atlantico.mp3'
p602
tp603
a(S"/mnt/dietpi_userdata/downloads/Selah Sue - I Won't Go for More.mp3"
p604
tp605
a(S'/mnt/dietpi_userdata/downloads/Parov Stelar Trio - The Invisible Girl.mp3'
p606
tp607
a(S'/mnt/dietpi_userdata/downloads/Aysedeniz Gokcin - Heart Shaped Box.mp3'
p608
tp609
a(S'/mnt/dietpi_userdata/downloads/731573858ee8d3b791cc0d3276098e5c045850ec314a3827b2ab0663c5ab0bc711fc514c312933a87d1356b3d08ad5ca9cb20a436f98744fbb31ab2f0cd2bb44d0edfa771ac03002ac2971680e03abe4.mp3'
p610
tp611
a(S"/mnt/dietpi_userdata/downloads/Swearin' - Untitled (LA).mp3"
p612
tp613
a(S"/mnt/dietpi_userdata/downloads/Noel Gallagher's High Flying Birds - In The Heat Of The Moment.mp3"
p614
tp615
a(S'/mnt/dietpi_userdata/downloads/The Shins - Australia (Album).mp3'
p616
tp617
a(S'/mnt/dietpi_userdata/downloads/James Heather - Oizys.mp3'
p618
tp619
a(S'/mnt/dietpi_userdata/downloads/Cosmo Sheldrake - Come Along.mp3'
p620
tp621
a(S'/mnt/dietpi_userdata/downloads/Bryce Fox - Stomp Me Out.mp3'
p622
tp623
a(S'/mnt/dietpi_userdata/downloads/INXS - Beautiful Girl.mp3'
p624
tp625
a(S'/mnt/dietpi_userdata/downloads/Robbie Williams - Angels.mp3'
p626
tp627
a(S'/mnt/dietpi_userdata/downloads/Jamie T - Zombie.mp3'
p628
tp629
a(S'/mnt/dietpi_userdata/downloads/The Wombats - Moving to New York.mp3'
p630
tp631
a(S'/mnt/dietpi_userdata/downloads/Colbie Caillat - When The Darkness Comes.mp3'
p632
tp633
a(S'/mnt/dietpi_userdata/downloads/Mabel - Finders Keepers.mp3'
p634
tp635
a(S'/mnt/dietpi_userdata/downloads/Pariah - Log Jam.mp3'
p636
tp637
a(S'/mnt/dietpi_userdata/downloads/Caro Emerald - Coming Back As A Man.mp3'
p638
tp639
a(S'/mnt/dietpi_userdata/downloads/Jake Bugg - On My One.mp3'
p640
tp641
a(S'/mnt/dietpi_userdata/downloads/Tape Five - Bad Boy Good Man (Feat. Henrik Wager) (Aerophon Mix).mp3'
p642
tp643
a(S'/mnt/dietpi_userdata/downloads/Olga Scheps - Nessaja.mp3'
p644
tp645
a(S'/mnt/dietpi_userdata/downloads/94b11b60ce1e4f963fdd3acd5b4ec62aaefe3e370ec94cb53991817b5067f3839cbd4ef524ed61cf0748bec31211e135f6e36d22012ee802756508a68ec477cc0e3b7ff7007b471181c80a4f0bf815e2.mp3'
p646
tp647
a(S'/mnt/dietpi_userdata/downloads/Amy Macdonald - This Is The Life.mp3'
p648
tp649
a(S'/mnt/dietpi_userdata/downloads/Ocean Colour Scene - Up On The Downside (Radio Edit).mp3'
p650
tp651
a(S'/mnt/dietpi_userdata/downloads/Radiohead - Creep.mp3'
p652
tp653
a(S'/mnt/dietpi_userdata/downloads/e3ba8a0bc5a2ce95926333162eec5c8be2e8ef99a86178e24d4d18f910b4d4a90657cc72b3d33083a37450e84264cfad91f35247a7ef1600d61303d2842f1c5edb42fc34778e4e59fa5d3a6117956cc7.mp3'
p654
tp655
a(S'/mnt/dietpi_userdata/downloads/Aysedeniz Gokcin - In Bloom.mp3'
p656
tp657
a(S'/mnt/dietpi_userdata/downloads/MGMT - The Youth.mp3'
p658
tp659
a(S'/mnt/dietpi_userdata/downloads/Eluveitie - Ogmios.mp3'
p660
tp661
a(S'/mnt/dietpi_userdata/downloads/Swing Republic - Fall.mp3'
p662
tp663
a(S'/mnt/dietpi_userdata/downloads/Amy Macdonald - Down By The Water (Acoustic).mp3'
p664
tp665
a(S'/mnt/dietpi_userdata/downloads/Les EnfoirxE9s - Si seulement je pouvais lui manquer (Live Version).mp3'
p666
tp667
a(S"/mnt/dietpi_userdata/downloads/Blackmore's Night - Under a Violet Moon.mp3"
p668
tp669
a(S'/mnt/dietpi_userdata/downloads/Yodelice - More Than Meets The Eye.mp3'
p670
tp671
a(S"/mnt/dietpi_userdata/downloads/Falling In Reverse - It's Over When It's Over.mp3"
p672
tp673
a(S'/mnt/dietpi_userdata/downloads/We The Kings - Sad Song (feat. Elena Coats).mp3'
p674
tp675
a(S'/mnt/dietpi_userdata/downloads/DubVision - Keep My Light On.mp3'
p676
tp677
a(S'/mnt/dietpi_userdata/downloads/We The Kings - Any Other Way.mp3'
p678
tp679
a(S'/mnt/dietpi_userdata/downloads/Bonobo - Heaven For The Sinner.mp3'
p680
tp681
a(S"/mnt/dietpi_userdata/downloads/Franz Ferdinand - You're The Reason I'm Leaving.mp3"
p682
tp683
a(S'/mnt/dietpi_userdata/downloads/21660c04804f7f1ee55d8b1b887a494f23ef4f9ac936fcfa74c672f3834ac5f693eb3edd15d9a093976e8f5f672ffa7c0dc4e5c6bf393d61b09b426b6e482e323909a92fc7b35dae5868667501274446.mp3'
p684
tp685
a(S'/mnt/dietpi_userdata/downloads/James Blunt - Goodbye My Lover.mp3'
p686
tp687
a(S'/mnt/dietpi_userdata/downloads/NOTD - Been There Done That.mp3'
p688
tp689
a(S'/mnt/dietpi_userdata/downloads/Alice Francis - St. James Ballroom.mp3'
p690
tp691
a(S"/mnt/dietpi_userdata/downloads/Sammy Davis Jr - It's Magic.mp3"
p692
tp693
a(S'/mnt/dietpi_userdata/downloads/Simply Three - Reverie.mp3'
p694
tp695
a(S'/mnt/dietpi_userdata/downloads/The Tenors - Who Wants To Live Forever.mp3'
p696
tp697
a(S'/mnt/dietpi_userdata/downloads/dbcb82cb1e0a67e16c9fe86fcbcb2f250d77351d788e313e51187d8f84e24cd86bb595f81a808bd9f867625013617618418af820e4024d00629b71ba7976e83047350510e5cec39b4f5dc08b36358048.mp3'
p698
tp699
a(S'/mnt/dietpi_userdata/downloads/Muse - Hysteria.mp3'
p700
tp701
a(S'/mnt/dietpi_userdata/downloads/Nadeah - Odile.mp3'
p702
tp703
a(S'/mnt/dietpi_userdata/downloads/JosxE9 GonzxE1lez - Heartbeats.mp3'
p704
tp705
a(S"/mnt/dietpi_userdata/downloads/The Vaccines - I Can't Quit.mp3"
p706
tp707
a(S'/mnt/dietpi_userdata/downloads/REO Speedwagon - Keep on Loving You.mp3'
p708
tp709
a(S'/mnt/dietpi_userdata/downloads/American Authors - Stay Around.mp3'
p710
tp711
a(S'/mnt/dietpi_userdata/downloads/Alexis Ffrench - Moments.mp3'
p712
tp713
a(S'/mnt/dietpi_userdata/downloads/e2415ca17c178136b073fe17a15be688f8afccc2a98de9593e412b4c88eccbdf9281aa824964a08d8fda3ee54f48dcee77831c38ccfe422bf17e45fdc7dc65077d1af7f3392671b6a77c92b795d8d10f.tmp'
p714
tp715
a(S'/mnt/dietpi_userdata/downloads/2c3c81ae676b9a879a6e0ce0375ad6834eac04bf537552082563fa662e07ca2ac5e65ccc857f0342ad3e04bdc4f842c0d9f5972b3c31c037895b9cd3c5197ca1862ecfc9715ce0323b2645418ab62c72.mp3'
p716
tp717
a(S"/mnt/dietpi_userdata/downloads/Keen' V - Elle a.mp3"
p718
tp719
a(S'/mnt/dietpi_userdata/downloads/Giovanni Allevi - Il Nuotatore (live).mp3'
p720
tp721
a(S'/mnt/dietpi_userdata/downloads/The Kills - Future Starts Slow.mp3'
p722
tp723
a(S"/mnt/dietpi_userdata/downloads/Pieter De Graaf - Charlotte's Daydream.mp3"
p724
tp725
a(S'/mnt/dietpi_userdata/downloads/Queens of the Stone Age - The Way You Used To Do.mp3'
p726
tp727
a(S'/mnt/dietpi_userdata/downloads/Garou - Gitan.mp3'
p728
tp729
a(S'/mnt/dietpi_userdata/downloads/Arcade Fire - Rebellion (Lies).mp3'
p730
tp731
a(S'/mnt/dietpi_userdata/downloads/Hardwell - Conquerors (Full Version).mp3'
p732
tp733
a(S"/mnt/dietpi_userdata/downloads/Cage The Elephant - Ain't No Rest For The Wicked (Original Version).mp3"
p734
tp735
a(S'/mnt/dietpi_userdata/downloads/Nick Mulvey - Mountain To Move.mp3'
p736
tp737
a(S'/mnt/dietpi_userdata/downloads/Tina Guo - Time (From Inception).mp3'
p738
tp739
a(S'/mnt/dietpi_userdata/downloads/Marcus Warner - An Toll Dubh (Arr. Marcus Warner).mp3'
p740
tp741
a(S'/mnt/dietpi_userdata/downloads/Redbone - Come And Get Your Love.mp3'
p742
tp743
a(S'/mnt/dietpi_userdata/downloads/Staind - Something To Remind You.mp3'
p744
tp745
a(S'/mnt/dietpi_userdata/downloads/Gotye - Eyes Wide Open.mp3'
p746
tp747
a(S'/mnt/dietpi_userdata/downloads/Of Monsters And Men - Organs.mp3'
p748
tp749
a(S'/mnt/dietpi_userdata/downloads/William Joseph - Kashmir (feat. Lucia Micarelli).mp3'
p750
tp751
a(S'/mnt/dietpi_userdata/downloads/[dunkelbunt] - Cinnamon Girl.mp3'
p752
tp753
a(S'/mnt/dietpi_userdata/downloads/599977b2355625b7dca145309cb7c9ec18c6638aeb7b01565a0b140c9f9ef2bd4f7bee04be1fdbadf4ca8cacc22acdd7f40e23512ff9400107599260b402c17f978e638e4732055f11214e402a46c69f.mp3'
p754
tp755
a(S'/mnt/dietpi_userdata/downloads/Melody Gardot - The Bare Necessities.mp3'
p756
tp757
a(S'/mnt/dietpi_userdata/downloads/Burial - Archangel.mp3'
p758
tp759
a(S'/mnt/dietpi_userdata/downloads/Keziah Jones - The Invisible Ladder.mp3'
p760
tp761
a(S'/mnt/dietpi_userdata/downloads/Patrick Stump - Explode.mp3'
p762
tp763
a(S'/mnt/dietpi_userdata/downloads/Mumford & Sons - The Cave.mp3'
p764
tp765
a(S'/mnt/dietpi_userdata/downloads/The Prodigy - Smack My Bitch Up.mp3'
p766
tp767
a(S'/mnt/dietpi_userdata/downloads/Roberto Cacciapaglia - Driving Home.mp3'
p768
tp769
a(S'/mnt/dietpi_userdata/downloads/Two Door Cinema Club - Undercover Martyn.mp3'
p770
tp771
a(S'/mnt/dietpi_userdata/downloads/The Calling - Wherever You Will Go (Acoustic).mp3'
p772
tp773
a(S'/mnt/dietpi_userdata/downloads/Sequoia - Piano Meditation #3.mp3'
p774
tp775
a(S'/mnt/dietpi_userdata/downloads/Andy Black - Westwood Road.mp3'
p776
tp777
a(S'/mnt/dietpi_userdata/downloads/Dean Martin - Sway (Quien Sera).mp3'
p778
tp779
a(S'/mnt/dietpi_userdata/downloads/Weakened Friends - Good Friend.mp3'
p780
tp781
a(S"/mnt/dietpi_userdata/downloads/Sexion d'Assaut - J'suis pas dans le game.mp3"
p782
tp783
a(S'/mnt/dietpi_userdata/downloads/The Wallflowers - 6th Avenue Heartache.mp3'
p784
tp785
a(S'/mnt/dietpi_userdata/downloads/Waterparks - Not Warriors.mp3'
p786
tp787
a(S'/mnt/dietpi_userdata/downloads/MartxE8n LeGrand - Nipawin.mp3'
p788
tp789
a(S'/mnt/dietpi_userdata/downloads/Mireille Mathieu - Une femme amoureuse.mp3'
p790
tp791
a(S'/mnt/dietpi_userdata/downloads/A Day to Remember - If It Means a Lot to You.mp3'
p792
tp793
a(S"/mnt/dietpi_userdata/downloads/Bart&Baker - Dead Air (Mikalogic Rmx) [feat. Catherine D'lish].mp3"
p794
tp795
a(S'/mnt/dietpi_userdata/downloads/b52dc7a7264f4c8aef3287eb658ddd797ddf085b0c1621dcb5ff0eb84aa67a9a5cf8a1cec42b1083b8f1f4fcf85ff52538c7814bd823e6a80dbb931fcd6a45d94d87a2f51c7ed1ef3be250bd20502d41.mp3'
p796
tp797
a(S'/mnt/dietpi_userdata/downloads/Aysedeniz Gokcin - Breed.mp3'
p798
tp799
a(S'/mnt/dietpi_userdata/downloads/4c9536ef0a01edfa8697448a5f0508a9917f36d822a17eb85234131921339df1f2dcce8f440cedd67c7da8c39cfa3a4f82cbfd6316d2b8ad8e87da14c9280a587306d56c5fb3b80277c45526f9ec4774.mp3'
p800
tp801
a(S'/mnt/dietpi_userdata/downloads/Selah Sue - So This Is Love.mp3'
p802
tp803
a(S'/mnt/dietpi_userdata/downloads/You Me At Six - Miracle in the Mourning.mp3'
p804
tp805
a(S'/mnt/dietpi_userdata/downloads/Lou Reed - Walk on the Wild Side (Remastered).mp3'
p806
tp807
a(S'/mnt/dietpi_userdata/downloads/The Beatles - Let It Be (Remastered 2009).mp3'
p808
tp809
a(S"/mnt/dietpi_userdata/downloads/Bruce Springsteen - I'm on Fire.mp3"
p810
tp811
a(S'/mnt/dietpi_userdata/downloads/Phoenix - Rome.mp3'
p812
tp813
a(S'/mnt/dietpi_userdata/downloads/Orthodox Celts - Irish Rover.mp3'
p814
tp815
a(S'/mnt/dietpi_userdata/downloads/Gravity Kills - Down [Lords of Acid Power Remix].mp3'
p816
tp817
a(S'/mnt/dietpi_userdata/downloads/Big Bad Voodoo Daddy - Big Time Operator.mp3'
p818
tp819
a(S'/mnt/dietpi_userdata/downloads/Jennifer Thomas - Because of You.mp3'
p820
tp821
a(S'/mnt/dietpi_userdata/downloads/Abney Park - Steampunk Revolution.mp3'
p822
tp823
a(S'/mnt/dietpi_userdata/downloads/Patti Smith - Gone Again.mp3'
p824
tp825
a(S'/mnt/dietpi_userdata/downloads/Peter Gabriel - The Book Of Love (Live).mp3'
p826
tp827
a(S'/mnt/dietpi_userdata/downloads/Rea Garvey - Beautiful Life.mp3'
p828
tp829
a(S'/mnt/dietpi_userdata/downloads/Queens of the Stone Age - Make It Wit Chu (Album Version).mp3'
p830
tp831
a(S'/mnt/dietpi_userdata/downloads/Emeli Sande - Read All About It, Pt. III.mp3'
p832
tp833
a(S'/mnt/dietpi_userdata/downloads/Good Charlotte - I Just Wanna Live.mp3'
p834
tp835
a(S'/mnt/dietpi_userdata/downloads/Royal Blood - Out of the Black.mp3'
p836
tp837
a(S'/mnt/dietpi_userdata/downloads/MGMT - Me and Michael.mp3'
p838
tp839
a(S'/mnt/dietpi_userdata/downloads/Catfish and the Bottlemen - Twice.mp3'
p840
tp841
a(S'/mnt/dietpi_userdata/downloads/Starset - My Demons.mp3'
p842
tp843
a(S'/mnt/dietpi_userdata/downloads/Fleetwood Mac - Dreams (2004 Remaster).mp3'
p844
tp845
a(S"/mnt/dietpi_userdata/downloads/R.E.M. - It's The End Of The World As We Know It (And I Feel Fine) (Remastered 2006).mp3"
p846
tp847
a(S'/mnt/dietpi_userdata/downloads/The Tallest Man on Earth - Love Is All.mp3'
p848
tp849
a(S'/mnt/dietpi_userdata/downloads/Bliss - Sleep Will Come.mp3'
p850
tp851
a(S'/mnt/dietpi_userdata/downloads/JoJo - Too Little Too Late (2018).mp3'
p852
tp853
a(S"/mnt/dietpi_userdata/downloads/Buffalo Springfield - For What It's Worth.mp3"
p854
tp855
a(S'/mnt/dietpi_userdata/downloads/Robbie Williams - Good People.mp3'
p856
tp857
a(S'/mnt/dietpi_userdata/downloads/The Vaccines - All My Friends Are Falling In Love.mp3'
p858
tp859
a(S"/mnt/dietpi_userdata/downloads/Les Stentors - Sept milliards de gens sur Terre (d'aprxE8s Trois milliards de gens sur Terre).mp3"
p860
tp861
a(S'/mnt/dietpi_userdata/downloads/alt-J - In Cold Blood.mp3'
p862
tp863
a(S'/mnt/dietpi_userdata/downloads/Bon Iver - 33 x{201C}GODx{201D}.mp3'
p864
tp865
a(S'/mnt/dietpi_userdata/downloads/Zazie - Speed.mp3'
p866
tp867
a(S'/mnt/dietpi_userdata/downloads/Travis - Eyes Wide Open.mp3'
p868
tp869
a(S'/mnt/dietpi_userdata/downloads/Jamie Berry - Lost In The Rhythm (Original Mix).mp3'
p870
tp871
a(S"/mnt/dietpi_userdata/downloads/Arctic Monkeys - Why'd You Only Call Me When You're High?.mp3"
p872
tp873
a(S'/mnt/dietpi_userdata/downloads/James Bay - Wild Love.mp3'
p874
tp875
a(S'/mnt/dietpi_userdata/downloads/Mystery Jets - Flakes.mp3'
p876
tp877
a(S'/mnt/dietpi_userdata/downloads/Cheat Codes - Only You.mp3'
p878
tp879
a(S'/mnt/dietpi_userdata/downloads/The Fratellis - Chelsea Dagger.mp3'
p880
tp881
a(S'/mnt/dietpi_userdata/downloads/Electronic Swing Orchestra - Clint Eastwood.mp3'
p882
tp883
a(S'/mnt/dietpi_userdata/downloads/Rise Against - The Violence.mp3'
p884
tp885
a(S"/mnt/dietpi_userdata/downloads/Melody Gardot - He's A Tramp.mp3"
p886
tp887
a(S"/mnt/dietpi_userdata/downloads/Elton John - I'm Still Standing.mp3"
p888
tp889
a(S'/mnt/dietpi_userdata/downloads/Indila - Ainsi bas la vida.mp3'
p890
tp891
a(S'/mnt/dietpi_userdata/downloads/The Wombats - Oceans.mp3'
p892
tp893
a(S'/mnt/dietpi_userdata/downloads/Limp Bizkit - Take A Look Around.mp3'
p894
tp895
a(S'/mnt/dietpi_userdata/downloads/The Puppini Sisters - Jilted (Album Version).mp3'
p896
tp897
a(S"/mnt/dietpi_userdata/downloads/Jamie T - Sticks 'N' Stones.mp3"
p898
tp899
a(S'/mnt/dietpi_userdata/downloads/Vanessa-Mae - Storm.mp3'
p900
tp901
a(S'/mnt/dietpi_userdata/downloads/Jefferson Airplane - Somebody to Love.mp3'
p902
tp903
a(S'/mnt/dietpi_userdata/downloads/Music Lab Collective - The River Flows In You.mp3'
p904
tp905
a(S'/mnt/dietpi_userdata/downloads/Helen Jane Long - Journey.mp3'
p906
tp907
a(S'/mnt/dietpi_userdata/downloads/NOTD - I Wanna Know (Acoustic).mp3'
p908
tp909
a(S'/mnt/dietpi_userdata/downloads/Travis - Sing.mp3'
p910
tp911
a(S'/mnt/dietpi_userdata/downloads/18d6ef1d7fa51d110e93ad34511a1b78f779ec4ee19fcc561a94fae61641afb09ace316f8a9099bdac9687e82b055bbe3e5a6967315d17efaef4a77aa33760f5ea9c4146ce67c79234d80e185577c460.mp3'
p912
tp913
a(S'/mnt/dietpi_userdata/downloads/The Puppini Sisters - Hollywood.mp3'
p914
tp915
a(S"/mnt/dietpi_userdata/downloads/Billy Joel - She's Always a Woman.mp3"
p916
tp917
a(S'/mnt/dietpi_userdata/downloads/Johnny Mathis - Wonderful Wonderful.mp3'
p918
tp919
a(S"/mnt/dietpi_userdata/downloads/Louis Armstrong - C'est si bon.mp3"
p920
tp921
a(S'/mnt/dietpi_userdata/downloads/The Vaccines - If You Wanna.mp3'
p922
tp923
a(S'/mnt/dietpi_userdata/downloads/Amalee - Strike Back (Fairy Tail) [feat. Natewantstobattle].mp3'
p924
tp925
a(S'/mnt/dietpi_userdata/downloads/Moriarty - Jimmy.mp3'
p926
tp927
a(S'/mnt/dietpi_userdata/downloads/Creedence Clearwater Revival - Proud Mary (Album Version).mp3'
p928
tp929
a(S'/mnt/dietpi_userdata/downloads/Joss Stone - Super Duper Love.mp3'
p930
tp931
a(S'/mnt/dietpi_userdata/downloads/The Kills - Siberian Nights.mp3'
p932
tp933
a(S'/mnt/dietpi_userdata/downloads/Abel Korzeniowski - Charms.mp3'
p934
tp935
a(S'/mnt/dietpi_userdata/downloads/Celtic Woman - The Voice.mp3'
p936
tp937
a(S'/mnt/dietpi_userdata/downloads/Alexandre Desplat - Extremely Loud and Incredibly Close.mp3'
p938
tp939
a(S'/mnt/dietpi_userdata/downloads/Queens of the Stone Age - No One Knows.mp3'
p940
tp941
a(S'/mnt/dietpi_userdata/downloads/Hugh Jackman - The Other Side.mp3'
p942
tp943
a(S'/mnt/dietpi_userdata/downloads/Deluxe - Mr Chicken.mp3'
p944
tp945
a(S'/mnt/dietpi_userdata/downloads/3 Doors Down - Round And Round (Album Version).mp3'
p946
tp947
a(S'/mnt/dietpi_userdata/downloads/The Beach Boys - I Get Around (Remastered).mp3'
p948
tp949
a(S"/mnt/dietpi_userdata/downloads/Jil Is Lucky - Le goxFBt de l'aventure.mp3"
p950
tp951
a(S'/mnt/dietpi_userdata/downloads/Aurelio Voltaire - Captains All.mp3'
p952
tp953
a(S'/mnt/dietpi_userdata/downloads/Catfish and the Bottlemen - Longshot.mp3'
p954
tp955
a(S'/mnt/dietpi_userdata/downloads/The Electro Swingers - Airship Swing.mp3'
p956
tp957
a(S'/mnt/dietpi_userdata/downloads/Mystery Jets - Show Me the Light.mp3'
p958
tp959
a(S'/mnt/dietpi_userdata/downloads/Coeur De Pirate - Somnambule.mp3'
p960
tp961
a(S'/mnt/dietpi_userdata/downloads/09a8b5a5cc0b3d8df6dffcf3d39cd2701e7de2bd8bc048f326f2606393a138549c869f035596c68f62f710d68d657982c1f8dfb9c96dabe556fba60bacd6c652545bef0d7751a41c85e139946d12c328.mp3'
p962
tp963
a(S'/mnt/dietpi_userdata/downloads/Anuna - Gaudete.mp3'
p964
tp965
a(S'/mnt/dietpi_userdata/downloads/Alexander Oscar - Complicated.mp3'
p966
tp967
a(S'/mnt/dietpi_userdata/downloads/Brigitte - Battez-vous.mp3'
p968
tp969
a(S'/mnt/dietpi_userdata/downloads/Peter Crowley - The Forest of Wonders.mp3'
p970
tp971
a(S'/mnt/dietpi_userdata/downloads/Papa Roach - Help.mp3'
p972
tp973
a(S"/mnt/dietpi_userdata/downloads/Scott Bradlee's Postmodern Jukebox - Don't You Worry Child.mp3"
p974
tp975
a(S'/mnt/dietpi_userdata/downloads/Arctic Monkeys - Do I Wanna Know?.mp3'
p976
tp977
a(S'/mnt/dietpi_userdata/downloads/Tina Guo - World of Warcraft.mp3'
p978
tp979
a(S'/mnt/dietpi_userdata/downloads/Peter Bjorn and John - One for the Team.mp3'
p980
tp981
a(S'/mnt/dietpi_userdata/downloads/Kaiser Chiefs - Everyday I Love You Less And Less.mp3'
p982
tp983
a(S'/mnt/dietpi_userdata/downloads/Marcus Intalex - Make Way (feat. DRS).mp3'
p984
tp985
a(S"/mnt/dietpi_userdata/downloads/Mabel - Don't Call Me Up (Acoustic).mp3"
p986
tp987
a(S'/mnt/dietpi_userdata/downloads/Neck Deep - December.mp3'
p988
tp989
a(S'/mnt/dietpi_userdata/downloads/2CELLOS - Despacito.mp3'
p990
tp991
a(S'/mnt/dietpi_userdata/downloads/Ben Howard - Small Things.mp3'
p992
tp993
a(S'/mnt/dietpi_userdata/downloads/Taylor Davis - Sadness and Sorrow (Naruto).mp3'
p994
tp995
a(S'/mnt/dietpi_userdata/downloads/Halestorm - Freak Like Me.mp3'
p996
tp997
a(S'/mnt/dietpi_userdata/downloads/Arcade Fire - Electric Blue.mp3'
p998
tp999
a(S'/mnt/dietpi_userdata/downloads/S.S.Band - Allez Les Verts (Hymne Saint-Etienne Anthems).mp3'
p1000
tp1001
a(S'/mnt/dietpi_userdata/downloads/The Electric Swing Circus - Hit & Run (Wolfgang Lohr Remix).mp3'
p1002
tp1003
a(S'/mnt/dietpi_userdata/downloads/Nickelback - When We Stand Together.mp3'
p1004
tp1005
a(S"/mnt/dietpi_userdata/downloads/Scissor Sisters - I Don't Feel Like Dancin'.mp3"
p1006
tp1007
a(S'/mnt/dietpi_userdata/downloads/The Last Shadow Puppets - Standing Next To Me.mp3'
p1008
tp1009
a(S'/mnt/dietpi_userdata/downloads/Cheat Codes & Kris Kross Amsterdam - Sex.mp3'
p1010
tp1011
a(S'/mnt/dietpi_userdata/downloads/Lindsey Stirling - Crystallize.mp3'
p1012
tp1013
a(S'/mnt/dietpi_userdata/downloads/Bart&Baker - Amico (Sono felice che tu esista) [feat. Pierre Santini].mp3'
p1014
tp1015
a(S'/mnt/dietpi_userdata/downloads/Nicholas Yee - Slow Dancing in the Dark.mp3'
p1016
tp1017
a(S"/mnt/dietpi_userdata/downloads/Dean Martin - Ain't That A Kick In The Head.mp3"
p1018
tp1019
a(S'/mnt/dietpi_userdata/downloads/3ed4a00eb766d413f90c7f51e4097416f42ccc9e0fd2dadb238b6bb29456487cfa3551452198558dd71c5085dabbf9a3de232361c506c131e6592bfef8bd037cf1f71284c78b2824dbc9e8376140ba17.mp3'
p1020
tp1021
a(S'/mnt/dietpi_userdata/downloads/9a6e97f27434b5998e8e444db6405db5a83ac88b59104e6856314463e8380f6730c1bfe1b487ada546d05045bbd6421eab8c3416133396b3564cf055c4bee2904b594c9319a7464415fb26a2ba92157c.mp3'
p1022
tp1023
a(S'/mnt/dietpi_userdata/downloads/Joss Stone - Dirty Man.mp3'
p1024
tp1025
a(S'/mnt/dietpi_userdata/downloads/Kids United - On xE9crit sur les murs.mp3'
p1026
tp1027
a(S'/mnt/dietpi_userdata/downloads/Robbie Williams - Party Like a Russian.mp3'
p1028
tp1029
a(S'/mnt/dietpi_userdata/downloads/The Strokes - Someday.mp3'
p1030
tp1031
a(S'/mnt/dietpi_userdata/downloads/Aim - Cold Water Music.mp3'
p1032
tp1033
a(S'/mnt/dietpi_userdata/downloads/Trevor Rabin - Theme From Armageddon.mp3'
p1034
tp1035
a(S'/mnt/dietpi_userdata/downloads/Max Richter - Solo (Pt. 1).mp3'
p1036
tp1037
a(S'/mnt/dietpi_userdata/downloads/Simon & Garfunkel - I Am a Rock.mp3'
p1038
tp1039
a(S'/mnt/dietpi_userdata/downloads/Cage The Elephant - Ready To Let Go.mp3'
p1040
tp1041
a(S'/mnt/dietpi_userdata/downloads/Doris Day - Be My Little Baby Bumble Bee.mp3'
p1042
tp1043
a(S'/mnt/dietpi_userdata/downloads/Cage The Elephant - Cold Cold Cold.mp3'
p1044
tp1045
a(S'/mnt/dietpi_userdata/downloads/Jamie T - If You Got The Money.mp3'
p1046
tp1047
a(S'/mnt/dietpi_userdata/downloads/Vance Joy - Fire and the Flood.mp3'
p1048
tp1049
a(S'/mnt/dietpi_userdata/downloads/2CELLOS - Game of Thrones Medley.mp3'
p1050
tp1051
a(S'/mnt/dietpi_userdata/downloads/Alle Farben - Walk Away.mp3'
p1052
tp1053
a(S'/mnt/dietpi_userdata/downloads/Nina Simone - Take Care Of Business.mp3'
p1054
tp1055
a(S'/mnt/dietpi_userdata/downloads/Thirty Seconds to Mars - Hail To The Victor.mp3'
p1056
tp1057
a(S'/mnt/dietpi_userdata/downloads/Halestorm - Amen.mp3'
p1058
tp1059
a(S'/mnt/dietpi_userdata/downloads/Madison Beer - Hurts Like Hell (Acoustic Live).mp3'
p1060
tp1061
a(S'/mnt/dietpi_userdata/downloads/x{42F}x{43D}x{43A}x{430} - x{41D}x{430} x{434}x{43E}x{440}x{43E}x{433}x{435} x{43F}x{44F}x{442}x{430}x{43A}.mp3'
p1062
tp1063
a(S'/mnt/dietpi_userdata/downloads/Marilyn Manson - KILL4ME.mp3'
p1064
tp1065
a(S'/mnt/dietpi_userdata/downloads/A Day to Remember - All I Want.mp3'
p1066
tp1067
a(S'/mnt/dietpi_userdata/downloads/Sleeping With Sirens - Legends.mp3'
p1068
tp1069
a(S'/mnt/dietpi_userdata/downloads/Secondhand Serenade - Fall for You (Acoustic).mp3'
p1070
tp1071
a(S'/mnt/dietpi_userdata/downloads/alt-J - Taro.mp3'
p1072
tp1073
a(S'/mnt/dietpi_userdata/downloads/Bowling for Soup - High School Never Ends (Main Version - Explicit).mp3'
p1074
tp1075
a(S'/mnt/dietpi_userdata/downloads/Chuck Berry - Big Boys.mp3'
p1076
tp1077
a(S'/mnt/dietpi_userdata/downloads/The Red Jumpsuit Apparatus - Wake Me Up.mp3'
p1078
tp1079
a(S'/mnt/dietpi_userdata/downloads/The Wombats - Greek Tragedy.mp3'
p1080
tp1081
a(S"/mnt/dietpi_userdata/downloads/James Blunt - You're Beautiful.mp3"
p1082
tp1083
a(S'/mnt/dietpi_userdata/downloads/Lorde - Green Light.mp3'
p1084
tp1085
a(S'/mnt/dietpi_userdata/downloads/James Blunt - Bonfire Heart.mp3'
p1086
tp1087
a(S'/mnt/dietpi_userdata/downloads/Olga Scheps - II. Andantino semplice.mp3'
p1088
tp1089
a(S'/mnt/dietpi_userdata/downloads/ea8c718a686bdab7084bc9d4fe23009f7dbfcab6bf869cf5a8462cc78d3ae3bbf78c98b9e1a70a5473ccaa8df83c744a0401817bd49fa7716e992b5c58b12eabf87b5ceba0924c6d1a6c48dfab4bdd60.mp3'
p1090
tp1091
a(S'/mnt/dietpi_userdata/downloads/Bruce Springsteen - Born in the U.S.A..mp3'
p1092
tp1093
a(S'/mnt/dietpi_userdata/downloads/Adele - Skyfall.mp3'
p1094
tp1095
a(S'/mnt/dietpi_userdata/downloads/Vanessa-Mae - Toccata and Fugue in D Minor (Live Version).mp3'
p1096
tp1097
a(S'/mnt/dietpi_userdata/downloads/The Black Keys - I Got Mine.mp3'
p1098
tp1099
a(S'/mnt/dietpi_userdata/downloads/Arctic Monkeys - I Bet You Look Good On The Dancefloor.mp3'
p1100
tp1101
a(S'/mnt/dietpi_userdata/downloads/Dean Martin - Everybody Loves Somebody.mp3'
p1102
tp1103
a(S'/mnt/dietpi_userdata/downloads/Anuna - August.mp3'
p1104
tp1105
a(S'/mnt/dietpi_userdata/downloads/Celtic Thunder - From The Ground Up.mp3'
p1106
tp1107
a(S'/mnt/dietpi_userdata/downloads/Alice Francis - Shoot Him Down (Parov Stelar Club Mix).mp3'
p1108
tp1109
a(S"/mnt/dietpi_userdata/downloads/Yann Tiersen - Comptine d'un autre xE9txE9, l'aprxE8s-midi.mp3"
p1110
tp1111
a(S'/mnt/dietpi_userdata/downloads/Club Des Belugas - Skip to the bip.mp3'
p1112
tp1113
a(S'/mnt/dietpi_userdata/downloads/Charlie Winston - Feeling Stop.mp3'
p1114
tp1115
a(S'/mnt/dietpi_userdata/downloads/James Newton Howard - The Hanging Tree.mp3'
p1116
tp1117
a(S'/mnt/dietpi_userdata/downloads/Nolwenn Leroy - Le chemin de pierre (Version Pop).mp3'
p1118
tp1119
a(S'/mnt/dietpi_userdata/downloads/96b9fe64515cf771f6425cbb44348250f8f5951ead71eb87f650e9437b60c84da8de2a2e0bca2e22ecc665c0d763235bf864d281f4ae4f8004bcd6d9128d456614176a27b6d1c6d91f19d4cd8e6aa2dd.mp3'
p1120
tp1121
a(S'/mnt/dietpi_userdata/downloads/Gene Autry - Back In the Saddle Again.mp3'
p1122
tp1123
a(S"/mnt/dietpi_userdata/downloads/Joan Jett and the Blackhearts - I Love Rock 'N Roll.mp3"
p1124
tp1125
a(S'/mnt/dietpi_userdata/downloads/3 Doors Down - In The Dark.mp3'
p1126
tp1127
a(S'/mnt/dietpi_userdata/downloads/Two Steps from Hell - Emerald Princess.mp3'
p1128
tp1129
a(S'/mnt/dietpi_userdata/downloads/Nightwish - Wish I Had An Angel.mp3'
p1130
tp1131
a(S'/mnt/dietpi_userdata/downloads/Claudio Baglioni - Strada Facendo.mp3'
p1132
tp1133
a(S'/mnt/dietpi_userdata/downloads/Alex Hepburn - I Believe.mp3'
p1134
tp1135
a(S'/mnt/dietpi_userdata/downloads/Celtic Woman - TxEDr na nxD3g.mp3'
p1136
tp1137
a(S'/mnt/dietpi_userdata/downloads/Bonobo - Kong.mp3'
p1138
tp1139
a(S'/mnt/dietpi_userdata/downloads/INXS - Need You Tonight.mp3'
p1140
tp1141
a(S'/mnt/dietpi_userdata/downloads/89b96094c724402d09e3f8ac149a354027abec1720b376a71ba886d1396919fc9ec030af0295b2860a2d370e7eefda46f2a0e3e8d7088584f35fd3a138bfb4fef40e5a1dacebb04a5ae6327d6aae4f12.mp3'
p1142
tp1143
a(S"/mnt/dietpi_userdata/downloads/Keen' V - Dis-moi oui (Marina).mp3"
p1144
tp1145
a(S'/mnt/dietpi_userdata/downloads/Big Bad Voodoo Daddy - Mr. Pinstripe Suit (Album Version).mp3'
p1146
tp1147
a(S'/mnt/dietpi_userdata/downloads/NOTD - Start It Over.mp3'
p1148
tp1149
a(S'/mnt/dietpi_userdata/downloads/Thomas Bergersen - Children of the Sun (feat. Merethe Soltvedt).mp3'
p1150
tp1151
a(S'/mnt/dietpi_userdata/downloads/Tartalo Music - Across the Snow.mp3'
p1152
tp1153
a(S'/mnt/dietpi_userdata/downloads/Two Steps from Hell - Strength of a Thousand Men (Instrumental).mp3'
p1154
tp1155
a(S'/mnt/dietpi_userdata/downloads/The Kinks - All Day And All Of The Night.mp3'
p1156
tp1157
a(S'/mnt/dietpi_userdata/downloads/Franz Ferdinand - Lazy Boy.mp3'
p1158
tp1159
a(S'/mnt/dietpi_userdata/downloads/Ginkgoa - One Time.mp3'
p1160
tp1161
a(S'/mnt/dietpi_userdata/downloads/The Cure - The Scream.mp3'
p1162
tp1163
a(S'/mnt/dietpi_userdata/downloads/Annelie - Fakebook.mp3'
p1164
tp1165
a(S'/mnt/dietpi_userdata/downloads/Cats on Trees - Sirens Call.mp3'
p1166
tp1167
a(S'/mnt/dietpi_userdata/downloads/Scott Bradlee & Postmodern Jukebox - Beauty and a Beat.mp3'
p1168
tp1169
a(S'/mnt/dietpi_userdata/downloads/Royal Blood - I Only Lie When I Love You.mp3'
p1170
tp1171
a(S"/mnt/dietpi_userdata/downloads/The Enemy - We'll Live and Die in These Towns.mp3"
p1172
tp1173
a(S'/mnt/dietpi_userdata/downloads/Paradise Fears - Lullaby.mp3'
p1174
tp1175
a(S'/mnt/dietpi_userdata/downloads/Mumford & Sons - Little Lion Man (Album Version).mp3'
p1176
tp1177
a(S'/mnt/dietpi_userdata/downloads/Band of Horses - Cigarettes, Wedding Bands (Album).mp3'
p1178
tp1179
a(S'/mnt/dietpi_userdata/downloads/x{422}x{43E}x{43C}x{430}x{441} x{41D}x{44C}x{44E}x{43C}x{430}x{43D} - Any Other Name.mp3'
p1180
tp1181
a(S'/mnt/dietpi_userdata/downloads/Electric Light Orchestra - Mr. Blue Sky.mp3'
p1182
tp1183
a(S'/mnt/dietpi_userdata/downloads/9cd76f4b03745a166fff5978c5abd4810cf6ad85ad0a8543f5649d9a4eb0c1cf7c4fad047ea3a7ca0887d0fdae2624c31eea40ec46683c41f72911c6c91c2e862fae8ff9ee5b621c0a56eac7b37ba365.mp3'
p1184
tp1185
a(S'/mnt/dietpi_userdata/downloads/Gotye - Somebody That I Used To Know.mp3'
p1186
tp1187
a(S'/mnt/dietpi_userdata/downloads/Circa Waves - Sorry Ix{2019}m Yours.mp3'
p1188
tp1189
a(S'/mnt/dietpi_userdata/downloads/3 Doors Down - Kryptonite.mp3'
p1190
tp1191
a(S'/mnt/dietpi_userdata/downloads/Celtic Woman - Nocturne.mp3'
p1192
tp1193
a(S'/mnt/dietpi_userdata/downloads/Peggy Lee - Black Coffee (Single Version).mp3'
p1194
tp1195
a(S'/mnt/dietpi_userdata/downloads/The Fratellis - Thief.mp3'
p1196
tp1197
a(S'/mnt/dietpi_userdata/downloads/Roberto Cacciapaglia - Aeolian Nights.mp3'
p1198
tp1199
a(S'/mnt/dietpi_userdata/downloads/Bonobo - Flicker (Mixed).mp3'
p1200
tp1201
a(S'/mnt/dietpi_userdata/downloads/George Ezra - Shotgun.mp3'
p1202
tp1203
a(S'/mnt/dietpi_userdata/downloads/Coeur De Pirate - Mistral gagnant.mp3'
p1204
tp1205
a(S'/mnt/dietpi_userdata/downloads/Ginkgoa - Dolores.mp3'
p1206
tp1207
a(S'/mnt/dietpi_userdata/downloads/Jennifer Thomas - Fire Dance.mp3'
p1208
tp1209
a(S'/mnt/dietpi_userdata/downloads/Miles Kane - Taking Over.mp3'
p1210
tp1211
a(S'/mnt/dietpi_userdata/downloads/Liam Gallagher - Wall Of Glass.mp3'
p1212
tp1213
a(S'/mnt/dietpi_userdata/downloads/Arctic Monkeys - R U Mine?.mp3'
p1214
tp1215
a(S'/mnt/dietpi_userdata/downloads/Catfish and the Bottlemen - Fluctuate.mp3'
p1216
tp1217
a(S'/mnt/dietpi_userdata/downloads/The Prodigy - Timebomb Zone.mp3'
p1218
tp1219
a(S'/mnt/dietpi_userdata/downloads/Alex Hepburn - Bad Girl.mp3'
p1220
tp1221
a(S"/mnt/dietpi_userdata/downloads/Giovanni Allevi - L'Orologio Degli Dei.mp3"
p1222
tp1223
a(S'/mnt/dietpi_userdata/downloads/31e1c48fda9e099ede9343c0c6dd70fb6afa2be5669d0a5a787fbc151dc1dfd108eb652b85a86f99db96767ef9a9e77a032dc303c954cd25b033648fb5a631e5a0ba019388572f74d3488331509390da.mp3'
p1224
tp1225
a(S'/mnt/dietpi_userdata/downloads/Max Richter - Dream 0 (till break of day) (Pt. 11).mp3'
p1226
tp1227
a(S'/mnt/dietpi_userdata/downloads/The Chainsmokers - Something Just Like This.mp3'
p1228
tp1229
a(S'/mnt/dietpi_userdata/downloads/DelaDap - Ring Me Up (Rejazzed).mp3'
p1230
tp1231
a(S'/mnt/dietpi_userdata/downloads/ee9837da9cdc68178dba2a3980d644c5d5236c87677002a49b522d8df3129092459919195c33f2872f377bfa8a9905c90d7bc4adbbe983546718456500afb3a5202f270be19bded6672097a66bddff38.mp3'
p1232
tp1233
a(S'/mnt/dietpi_userdata/downloads/Charlotte Cardin - Big Boy.mp3'
p1234
tp1235
a(S'/mnt/dietpi_userdata/downloads/Grouplove - Let Me In.mp3'
p1236
tp1237
a(S'/mnt/dietpi_userdata/downloads/Blackdown - Lonely Moon (Android Heartbreak Drumz Remix).mp3'
p1238
tp1239
a(S'/mnt/dietpi_userdata/downloads/Artist Vs Poet - Stay.mp3'
p1240
tp1241
a(S'/mnt/dietpi_userdata/downloads/I Prevail - Paranoid.mp3'
p1242
tp1243
a(S'/mnt/dietpi_userdata/downloads/Zarif - Over.mp3'
p1244
tp1245
a(S'/mnt/dietpi_userdata/downloads/Moriarty - Long Live the (D)Evil.mp3'
p1246
tp1247
a(S'/mnt/dietpi_userdata/downloads/Albert Hammond Jr. - Set to Attack.mp3'
p1248
tp1249
a(S"/mnt/dietpi_userdata/downloads/Elton John - Rocket Man (I Think It's Going To Be A Long Long Time) (Remastered).mp3"
p1250
tp1251
a(S"/mnt/dietpi_userdata/downloads/The Wolfe Tones - We're On The One Road.mp3"
p1252
tp1253
a(S'/mnt/dietpi_userdata/downloads/Mika - Relax, Take It Easy (Album Version).mp3'
p1254
tp1255
a(S'/mnt/dietpi_userdata/downloads/The Prodigy - Breathe.mp3'
p1256
tp1257
a(S'/mnt/dietpi_userdata/downloads/Movie Sounds Unlimited - Cabaret (Main Theme).mp3'
p1258
tp1259
a(S'/mnt/dietpi_userdata/downloads/Twenty One Pilots - Bandito.mp3'
p1260
tp1261
a(S"/mnt/dietpi_userdata/downloads/Les Marins D'Iroise - Santiano.mp3"
p1262
tp1263
a(S'/mnt/dietpi_userdata/downloads/Edward Sharpe & The Magnetic Zeros - 40 Day Dream.mp3'
p1264
tp1265
a(S'/mnt/dietpi_userdata/downloads/Minimatic - No Diggity (Minimatic Remix).mp3'
p1266
tp1267
a(S'/mnt/dietpi_userdata/downloads/Lauryn Hill - Everything Is Everything.mp3'
p1268
tp1269
a(S'/mnt/dietpi_userdata/downloads/LASCALA - x{420}x{435}x{432}x{430}x{43D}x{448}.mp3'
p1270
tp1271
a(S'/mnt/dietpi_userdata/downloads/The Chainsmokers - Who Do You Love.mp3'
p1272
tp1273
a(S'/mnt/dietpi_userdata/downloads/Celtic Woman - Nella Fantasia.mp3'
p1274
tp1275
a(S'/mnt/dietpi_userdata/downloads/All Time Low - Kids In The Dark.mp3'
p1276
tp1277
a(S'/mnt/dietpi_userdata/downloads/Peter Bjorn and John - Amsterdam.mp3'
p1278
tp1279
a(S'/mnt/dietpi_userdata/downloads/Foster the People - Houdini.mp3'
p1280
tp1281
a(S"/mnt/dietpi_userdata/downloads/Bart&Baker - It's in Her Heels (feat. Haylen) [Wolfgang Lohr Remix].mp3"
p1282
tp1283
a(S'/mnt/dietpi_userdata/downloads/Eagle Lake - Remembering.mp3'
p1284
tp1285
a(S'/mnt/dietpi_userdata/downloads/The Fratellis - Desperate Guy.mp3'
p1286
tp1287
a(S'/mnt/dietpi_userdata/downloads/C2C - The Cell.mp3'
p1288
tp1289
a(S'/mnt/dietpi_userdata/downloads/Swingrowers - Midnight.mp3'
p1290
tp1291
a(S'/mnt/dietpi_userdata/downloads/Belleruche - Anything You Want (Not That).mp3'
p1292
tp1293
a(S'/mnt/dietpi_userdata/downloads/Selah Sue - Alone (Acoustic Version) [Bonus Track].mp3'
p1294
tp1295
a(S'/mnt/dietpi_userdata/downloads/Incontrol - My Baby Please (Extra Medium Remix).mp3'
p1296
tp1297
a(S'/mnt/dietpi_userdata/downloads/Whitetree - Other Nature.mp3'
p1298
tp1299
a(S'/mnt/dietpi_userdata/downloads/The xx - Night Time.mp3'
p1300
tp1301
a(S'/mnt/dietpi_userdata/downloads/Electronic Swing Orchestra - How High.mp3'
p1302
tp1303
a(S"/mnt/dietpi_userdata/downloads/Mundy - Courtin' In the Kitchen.mp3"
p1304
tp1305
a(S'/mnt/dietpi_userdata/downloads/Panic! At the Disco - One Of The Drunks.mp3'
p1306
tp1307
a(S'/mnt/dietpi_userdata/downloads/Jamie T - Sheila.mp3'
p1308
tp1309
a(S'/mnt/dietpi_userdata/downloads/Mike Perry - Stay Young.mp3'
p1310
tp1311
a(S'/mnt/dietpi_userdata/downloads/Starset - Monster.mp3'
p1312
tp1313
a(S'/mnt/dietpi_userdata/downloads/Waterparks - Blonde.mp3'
p1314
tp1315
a(S'/mnt/dietpi_userdata/downloads/Ella Fitzgerald - A Foggy Day.mp3'
p1316
tp1317
a(S'/mnt/dietpi_userdata/downloads/The Black Angels - Young Men Dead.mp3'
p1318
tp1319
a(S'/mnt/dietpi_userdata/downloads/Helene Fischer - Atemlos durch die Nacht.mp3'
p1320
tp1321
a(S'/mnt/dietpi_userdata/downloads/Porcupine Tree - The Start of Something Beautiful.mp3'
p1322
tp1323
a(S'/mnt/dietpi_userdata/downloads/High Contrast - If We Ever (Unglued Remix).mp3'
p1324
tp1325
a(S'/mnt/dietpi_userdata/downloads/nathan carter - Wanna Dance.mp3'
p1326
tp1327
a(S'/mnt/dietpi_userdata/downloads/David Hicken - Talavera.mp3'
p1328
tp1329
a(S"/mnt/dietpi_userdata/downloads/Swearin' - Margaret.mp3"
p1330
tp1331
a(S'/mnt/dietpi_userdata/downloads/Tape Five - Geraldines Routine.mp3'
p1332
tp1333
a(S'/mnt/dietpi_userdata/downloads/The Cribs - Moving Pictures.mp3'
p1334
tp1335
a(S'/mnt/dietpi_userdata/downloads/Nightmares on Wax - You Wish.mp3'
p1336
tp1337
a(S'/mnt/dietpi_userdata/downloads/fad128adfeffd57df0918b2af62a0ec3a65c335634f74e72b91687ea2eace380041390c3c5476434f5aa1d3831cf12ce5fa5a61f659b99ba3b38af9b0bca0f595c2024a30d0cfa85efc50d3e2f0fe8c2.mp3'
p1338
tp1339
a(S'/mnt/dietpi_userdata/downloads/Alice Merton - 2 Kids.mp3'
p1340
tp1341
a(S'/mnt/dietpi_userdata/downloads/Abney Park - Scupper Shanty.mp3'
p1342
tp1343
a(S'/mnt/dietpi_userdata/downloads/The Kilkennys - Spanish Lady.mp3'
p1344
tp1345
a(S'/mnt/dietpi_userdata/downloads/nathan carter - Liverpool.mp3'
p1346
tp1347
a(S'/mnt/dietpi_userdata/downloads/Black Honey - All My Pride.mp3'
p1348
tp1349
a(S'/mnt/dietpi_userdata/downloads/dArtagnan - Sing mir ein Lied (Skye Boat Song, Theme from Outlander).mp3'
p1350
tp1351
a(S'/mnt/dietpi_userdata/downloads/Orbital - Tiny Foldable Cities.mp3'
p1352
tp1353
a(S'/mnt/dietpi_userdata/downloads/Clark - Winter Linn.mp3'
p1354
tp1355
a(S'/mnt/dietpi_userdata/downloads/Cage The Elephant - House Of Glass.mp3'
p1356
tp1357
a(S'/mnt/dietpi_userdata/downloads/Mel TormxE9 - Too Darn Hot (feat. The Marty Paich Orchestra).mp3'
p1358
tp1359
a(S'/mnt/dietpi_userdata/downloads/Fall Out Boy - The Phoenix.mp3'
p1360
tp1361
a(S'/mnt/dietpi_userdata/downloads/Vanessa-Mae - White Bird (Original Single Edit).mp3'
p1362
tp1363
a(S'/mnt/dietpi_userdata/downloads/Cissie Redgwick - Mister Mister (Mr.Edwardz Remix).mp3'
p1364
tp1365
a(S'/mnt/dietpi_userdata/downloads/RIOPY - On a Cloud.mp3'
p1366
tp1367
a(S'/mnt/dietpi_userdata/downloads/Gesaffelstein - Blast Off.mp3'
p1368
tp1369
a(S'/mnt/dietpi_userdata/downloads/Faun - Diese kalte Nacht.mp3'
p1370
tp1371
a(S'/mnt/dietpi_userdata/downloads/Oingo Boingo - You Really Got Me.mp3'
p1372
tp1373
a(S'/mnt/dietpi_userdata/downloads/Elliott Smith - Twilight.mp3'
p1374
tp1375
a(S'/mnt/dietpi_userdata/downloads/League of Legends - Legends Never Die (feat. Against the Current).mp3'
p1376
tp1377
a(S'/mnt/dietpi_userdata/downloads/Caravan Palace - Comics.mp3'
p1378
tp1379
a(S'/mnt/dietpi_userdata/downloads/Hollywood Undead - Undead.mp3'
p1380
tp1381
atp1382
Rp1383
s.